target datalayout = "e-m:e-p270:32:32-p271:32:32-p272:64:64-i64:64-i128:128-f80:128-n8:16:32:64-S128"
target triple = "x86_64-pc-linux-gnu"

%struct.HuffmanTables = type { %struct.HuffmanTablesSegment, ptr }
%struct.HuffmanTablesSegment = type { ptr, ptr, ptr, i32 }

; Function Attrs: nounwind uwtable
define hidden i32 @VP8LHuffmanTablesAllocate(i32 noundef %0, ptr noundef %1) #0 {
  %3 = alloca i32, align 4
  %4 = alloca i32, align 4
  %5 = alloca ptr, align 8
  %6 = alloca ptr, align 8
  store i32 %0, ptr %4, align 4
  store ptr %1, ptr %5, align 8
  %7 = load ptr, ptr %5, align 8
  %8 = getelementptr inbounds %struct.HuffmanTables, ptr %7, i32 0, i32 0
  store ptr %8, ptr %6, align 8
  %9 = load ptr, ptr %6, align 8
  %10 = load ptr, ptr %5, align 8
  %11 = getelementptr inbounds %struct.HuffmanTables, ptr %10, i32 0, i32 1
  store ptr %9, ptr %11, align 8
  %12 = load ptr, ptr %6, align 8
  %13 = getelementptr inbounds %struct.HuffmanTablesSegment, ptr %12, i32 0, i32 2
  store ptr null, ptr %13, align 8
  %14 = load i32, ptr %4, align 4
  %15 = sext i32 %14 to i64
  %16 = call ptr @WebPSafeMalloc(i64 noundef %15, i64 noundef 4)
  %17 = load ptr, ptr %6, align 8
  %18 = getelementptr inbounds %struct.HuffmanTablesSegment, ptr %17, i32 0, i32 0
  store ptr %16, ptr %18, align 8
  %19 = load ptr, ptr %6, align 8
  %20 = getelementptr inbounds %struct.HuffmanTablesSegment, ptr %19, i32 0, i32 0
  %21 = load ptr, ptr %20, align 8
  %22 = icmp eq ptr %21, null
  br i1 %22, label %23, label %24

23:                                               ; preds = %2
  store i32 0, ptr %3, align 4
  br label %33

24:                                               ; preds = %2
  %25 = load ptr, ptr %6, align 8
  %26 = getelementptr inbounds %struct.HuffmanTablesSegment, ptr %25, i32 0, i32 0
  %27 = load ptr, ptr %26, align 8
  %28 = load ptr, ptr %6, align 8
  %29 = getelementptr inbounds %struct.HuffmanTablesSegment, ptr %28, i32 0, i32 1
  store ptr %27, ptr %29, align 8
  %30 = load i32, ptr %4, align 4
  %31 = load ptr, ptr %6, align 8
  %32 = getelementptr inbounds %struct.HuffmanTablesSegment, ptr %31, i32 0, i32 3
  store i32 %30, ptr %32, align 8
  store i32 1, ptr %3, align 4
  br label %33

33:                                               ; preds = %24, %23
  %34 = load i32, ptr %3, align 4
  ret i32 %34
}