; Function Attrs: nounwind uwtable
define hidden range(i32 0, 2) i32 @VP8LHuffmanTablesAllocate(i32 noundef %0, ptr noundef %1) local_unnamed_addr #0 {
  %3 = getelementptr inbounds i8, ptr %1, i64 32
  store ptr %1, ptr %3, align 8
  %4 = getelementptr inbounds i8, ptr %1, i64 16
  store ptr null, ptr %4, align 8
  %5 = sext i32 %0 to i64
  %6 = tail call ptr @WebPSafeMalloc(i64 noundef %5, i64 noundef 4) #5
  store ptr %6, ptr %1, align 8
  %7 = icmp eq ptr %6, null
  br i1 %7, label %11, label %8

8:                                                ; preds = %2
  %9 = getelementptr inbounds i8, ptr %1, i64 8
  store ptr %6, ptr %9, align 8
  %10 = getelementptr inbounds i8, ptr %1, i64 24
  store i32 %0, ptr %10, align 8
  br label %11

11:                                               ; preds = %2, %8
  %.0 = phi i32 [ 1, %8 ], [ 0, %2 ]
  ret i32 %.0
}